; Function Attrs: mustprogress uwtable
define noundef i32 @_ZNK3zmq16mechanism_base_t29check_basic_command_structureEPNS_5msg_tE(ptr nocapture noundef nonnull readonly align 8 dereferenceable(1496) %this, ptr noundef nonnull %msg_) local_unnamed_addr #0 align 2 {
entry:
  %call = tail call noundef i64 @_ZNK3zmq5msg_t4sizeEv(ptr noundef nonnull align 8 dereferenceable(64) %msg_)
  %cmp = icmp ult i64 %call, 2
  br i1 %cmp, label %if.then, label %lor.lhs.false

lor.lhs.false:                                    ; preds = %entry
  %call2 = tail call noundef i64 @_ZNK3zmq5msg_t4sizeEv(ptr noundef nonnull align 8 dereferenceable(64) %msg_)
  %call3 = tail call noundef ptr @_ZN3zmq5msg_t4dataEv(ptr noundef nonnull align 8 dereferenceable(64) %msg_)
  %0 = load i8, ptr %call3, align 1
  %conv = zext i8 %0 to i64
  %cmp4.not = icmp ugt i64 %call2, %conv
  br i1 %cmp4.not, label %return, label %if.then

if.then:                                          ; preds = %lor.lhs.false, %entry
  %session = getelementptr inbounds i8, ptr %this, i64 1488
  %1 = load ptr, ptr %session, align 8
  %call5 = tail call noundef ptr @_ZNK3zmq14session_base_t10get_socketEv(ptr noundef nonnull align 8 dereferenceable(1624) %1)
  %2 = load ptr, ptr %session, align 8
  %call7 = tail call noundef nonnull align 8 dereferenceable(68) ptr @_ZNK3zmq14session_base_t12get_endpointEv(ptr noundef nonnull align 8 dereferenceable(1624) %2)
  tail call void @_ZN3zmq13socket_base_t31event_handshake_failed_protocolERKNS_19endpoint_uri_pair_tEi(ptr noundef nonnull align 8 dereferenceable(1825) %call5, ptr noundef nonnull align 8 dereferenceable(68) %call7, i32 noundef 268435473)
  %call8 = tail call ptr @__errno_location() #6
  store i32 71, ptr %call8, align 4
  br label %return

return:                                           ; preds = %lor.lhs.false, %if.then
  %retval.0 = phi i32 [ -1, %if.then ], [ 0, %lor.lhs.false ]
  ret i32 %retval.0
}